Certificate:
    Data:
        Version: 3 (0x2)
        Serial Number: 1193047 (0x123457)
    Signature Algorithm: sha256WithRSAEncryption
        Issuer: C=CN, ST=BJ, L=BJ, O=JD, OU=IT, CN=www.ssuupper.com/emailAddress=yeshuqiu2012@163.com
        Validity
            Not Before: May 31 23:57:37 2018 GMT
            Not After : May 31 23:57:37 2019 GMT
        Subject: C=CN, ST=BJ, O=JD, OU=IT, CN=www.ssuupper.com/emailAddress=yeshuqiu2012@163.com
        Subject Public Key Info:
            Public Key Algorithm: rsaEncryption
                Public-Key: (2048 bit)
                Modulus:
                    00:c0:0e:18:a1:af:04:24:12:5c:3b:d6:4b:57:4b:
                    d6:e6:d7:4a:59:45:0f:56:21:4d:f8:d6:f0:bc:7e:
                    13:34:5a:e2:a9:68:ce:9e:a3:6b:ea:e1:8e:d3:83:
                    5d:1a:03:39:77:c2:c8:60:4f:c3:43:32:2e:8d:09:
                    91:64:18:f7:e5:97:20:e7:32:df:7e:5f:55:5a:5a:
                    ec:f5:0f:82:67:04:33:52:56:fc:25:45:17:18:e2:
                    03:5c:7e:30:f5:9b:82:60:e6:27:9c:ef:5e:40:70:
                    a6:61:8f:b7:eb:57:39:4a:43:25:22:4a:d7:ee:51:
                    a0:dd:92:7c:8d:33:42:ab:35:12:9e:8f:fe:12:f1:
                    72:b1:6d:7f:bd:e8:f4:f9:54:72:1d:56:d1:f4:a2:
                    88:b5:19:cb:ae:f9:fe:cd:10:83:d5:54:27:2a:5f:
                    9f:fc:09:8f:d3:10:df:df:cd:be:63:8b:15:98:bc:
                    3b:48:3f:53:27:dd:55:0b:a2:86:60:e9:8e:e3:d9:
                    96:4c:d3:ba:7e:4d:ed:8f:8c:e2:a3:28:7f:df:4e:
                    b0:a4:c1:ef:76:ba:a8:73:f6:58:2f:5e:5b:9c:f9:
                    7a:1c:0b:63:a1:f0:a4:a7:79:31:56:10:6e:24:b9:
                    b8:84:f9:6f:80:1b:af:14:b5:2e:08:fe:bc:16:d6:
                    32:67
                Exponent: 65537 (0x10001)
        X509v3 extensions:
            X509v3 Basic Constraints: 
                CA:FALSE
            Netscape Comment: 
                OpenSSL Generated Certificate
            X509v3 Subject Key Identifier: 
                15:ED:7A:B4:68:41:16:1C:DE:AA:C3:E1:2D:EF:2A:B9:21:26:26:13
            X509v3 Authority Key Identifier: 
                DirName:/C=CN/ST=BJ/L=BJ/O=JD/OU=IT/CN=www.ssuupper.com/emailAddress=yeshuqiu2012@163.com
                serial:A8:49:35:2C:2B:8D:E6:2D

    Signature Algorithm: sha256WithRSAEncryption
         11:73:30:39:57:8c:2d:85:40:a1:0c:15:3f:35:51:2b:a4:9f:
         9c:8a:cb:bb:81:3b:ca:e1:75:a9:bc:33:78:d3:19:df:f6:27:
         fb:cc:a7:a1:8e:9a:59:32:5b:34:bf:f5:e0:39:a9:02:b5:8c:
         0e:76:dc:0e:e0:f3:f4:8f:1f:60:23:c4:d0:14:b8:c8:a0:3f:
         eb:6a:6c:1f:ef:14:e4:29:ec:43:d3:bd:3a:2c:83:25:24:9f:
         67:bf:9b:7b:94:7a:9d:34:bc:58:c6:dd:38:86:04:24:9c:50:
         54:d8:06:95:49:97:94:6f:94:56:58:92:b1:18:30:21:fc:f4:
         68:9f:ec:51:f2:bb:ae:e5:48:a5:20:01:79:29:98:98:2e:6b:
         7a:d0:70:b0:77:97:0b:37:2b:f9:8c:bd:77:f5:88:50:4a:3f:
         11:fb:2f:cc:90:f9:18:91:df:2a:10:27:1f:13:dc:6b:38:3f:
         19:1d:27:62:b3:0c:89:68:c4:15:56:2d:b3:f6:32:a2:2a:ef:
         71:43:78:a9:a7:22:04:90:54:81:e1:7d:ae:e1:53:b3:7b:8f:
         89:f1:4a:b6:a0:b1:5d:a5:85:b0:35:cc:1a:4b:29:94:e7:30:
         f4:96:7d:93:b7:50:a8:a8:66:87:69:3e:0c:83:15:62:a2:df:
         e1:71:d8:81
-----BEGIN CERTIFICATE-----
MIIEcjCCA1qgAwIBAgIDEjRXMA0GCSqGSIb3DQEBCwUAMIGBMQswCQYDVQQGEwJD
TjELMAkGA1UECAwCQkoxCzAJBgNVBAcMAkJKMQswCQYDVQQKDAJKRDELMAkGA1UE
CwwCSVQxGTAXBgNVBAMMEHd3dy5zc3V1cHBlci5jb20xIzAhBgkqhkiG9w0BCQEW
FHllc2h1cWl1MjAxMkAxNjMuY29tMB4XDTE4MDUzMTIzNTczN1oXDTE5MDUzMTIz
NTczN1owdDELMAkGA1UEBhMCQ04xCzAJBgNVBAgMAkJKMQswCQYDVQQKDAJKRDEL
MAkGA1UECwwCSVQxGTAXBgNVBAMMEHd3dy5zc3V1cHBlci5jb20xIzAhBgkqhkiG
9w0BCQEWFHllc2h1cWl1MjAxMkAxNjMuY29tMIIBIjANBgkqhkiG9w0BAQEFAAOC
AQ8AMIIBCgKCAQEAwA4Yoa8EJBJcO9ZLV0vW5tdKWUUPViFN+NbwvH4TNFriqWjO
nqNr6uGO04NdGgM5d8LIYE/DQzIujQmRZBj35Zcg5zLffl9VWlrs9Q+CZwQzUlb8
JUUXGOIDXH4w9ZuCYOYnnO9eQHCmYY+361c5SkMlIkrX7lGg3ZJ8jTNCqzUSno/+
EvFysW1/vej0+VRyHVbR9KKItRnLrvn+zRCD1VQnKl+f/AmP0xDf382+Y4sVmLw7
SD9TJ91VC6KGYOmO49mWTNO6fk3tj4zioyh/306wpMHvdrqoc/ZYL15bnPl6HAtj
ofCkp3kxVhBuJLm4hPlvgBuvFLUuCP68FtYyZwIDAQABo4H+MIH7MAkGA1UdEwQC
MAAwLAYJYIZIAYb4QgENBB8WHU9wZW5TU0wgR2VuZXJhdGVkIENlcnRpZmljYXRl
MB0GA1UdDgQWBBQV7Xq0aEEWHN6qw+Et7yq5ISYmEzCBoAYDVR0jBIGYMIGVoYGH
pIGEMIGBMQswCQYDVQQGEwJDTjELMAkGA1UECAwCQkoxCzAJBgNVBAcMAkJKMQsw
CQYDVQQKDAJKRDELMAkGA1UECwwCSVQxGTAXBgNVBAMMEHd3dy5zc3V1cHBlci5j
b20xIzAhBgkqhkiG9w0BCQEWFHllc2h1cWl1MjAxMkAxNjMuY29tggkAqEk1LCuN
5i0wDQYJKoZIhvcNAQELBQADggEBABFzMDlXjC2FQKEMFT81USukn5yKy7uBO8rh
dam8M3jTGd/2J/vMp6GOmlkyWzS/9eA5qQK1jA523A7g8/SPH2AjxNAUuMigP+tq
bB/vFOQp7EPTvTosgyUkn2e/m3uUep00vFjG3TiGBCScUFTYBpVJl5RvlFZYkrEY
MCH89Gif7FHyu67lSKUgAXkpmJgua3rQcLB3lws3K/mMvXf1iFBKPxH7L8yQ+RiR
3yoQJx8T3Gs4PxkdJ2KzDIloxBVWLbP2MqIq73FDeKmnIgSQVIHhfa7hU7N7j4nx
SragsV2lhbA1zBpLKZTnMPSWfZO3UKioZodpPgyDFWKi3+Fx2IE=
-----END CERTIFICATE-----
